target datalayout = "e-m:e-p270:32:32-p271:32:32-p272:64:64-i64:64-i128:128-f80:128-n8:16:32:64-S128"
target triple = "x86_64-pc-linux-gnu"

@.str.60 = private unnamed_addr constant [5 x i8] c"test\00", align 1
@.str.61 = private unnamed_addr constant [14 x i8] c"cache != NULL\00", align 1
@.str.62 = private unnamed_addr constant [10 x i8] c"testapp.c\00", align 1
@__PRETTY_FUNCTION__.cache_create_test = private unnamed_addr constant [41 x i8] c"enum test_return cache_create_test(void)\00", align 1

; Function Attrs: nounwind uwtable
define internal i32 @cache_create_test() #0 {
  %1 = alloca ptr, align 8
  call void @llvm.lifetime.start.p0(i64 8, ptr %1) #12
  %2 = call ptr @cache_create(ptr noundef @.str.60, i64 noundef 4, i64 noundef 8)
  store ptr %2, ptr %1, align 8, !tbaa !4
  %3 = load ptr, ptr %1, align 8, !tbaa !4
  %4 = icmp ne ptr %3, null
  br i1 %4, label %5, label %6

5:                                                ; preds = %0
  br label %7

6:                                                ; preds = %0
  call void @__assert_fail(ptr noundef @.str.61, ptr noundef @.str.62, i32 noundef 101, ptr noundef @__PRETTY_FUNCTION__.cache_create_test) #13
  unreachable

7:                                                ; preds = %5
  %8 = load ptr, ptr %1, align 8, !tbaa !4
  call void @cache_destroy(ptr noundef %8)
  call void @llvm.lifetime.end.p0(i64 8, ptr %1) #12
  ret i32 1
}