; Function Attrs: nounwind uwtable
define internal noundef i32 @cache_create_test() #0 {
  %1 = tail call ptr @cache_create(ptr noundef nonnull @.str.60, i64 noundef 4, i64 noundef 8) #21
  %.not = icmp eq ptr %1, null
  br i1 %.not, label %2, label %3

2:                                                ; preds = %0
  tail call void @__assert_fail(ptr noundef nonnull @.str.61, ptr noundef nonnull @.str.62, i32 noundef 101, ptr noundef nonnull @__PRETTY_FUNCTION__.cache_create_test) #22
  unreachable

3:                                                ; preds = %0
  tail call void @cache_destroy(ptr noundef nonnull %1) #21
  ret i32 1
}